ccopy_reg
_reconstructor
p0
(csklearn.pipeline
Pipeline
p1
c__builtin__
object
p2
Ntp3
Rp4
(dp5
S'_sklearn_version'
p6
S'0.19.1'
p7
sS'steps'
p8
(lp9
(S'PCA'
p10
g0
(csklearn.decomposition.pca
PCA
p11
g2
Ntp12
Rp13
(dp14
S'iterated_power'
p15
S'auto'
p16
sS'n_components'
p17
I2
sS'random_state'
p18
Nsg6
g7
sS'whiten'
p19
I00
sS'tol'
p20
F0.0
sS'copy'
p21
I01
sS'svd_solver'
p22
g16
sbtp23
a(S'clf'
p24
g0
(csklearn.tree.tree
DecisionTreeClassifier
p25
g2
Ntp26
Rp27
(dp28
S'presort'
p29
I00
sS'splitter'
p30
S'best'
p31
sS'min_impurity_decrease'
p32
F0.0
sS'min_impurity_split'
p33
NsS'min_samples_leaf'
p34
I1
sS'max_features'
p35
Nsg18
I29
sS'criterion'
p36
S'gini'
p37
sS'min_weight_fraction_leaf'
p38
F0.0
sS'max_leaf_nodes'
p39
NsS'min_samples_split'
p40
I45
sg6
g7
sS'max_depth'
p41
NsS'class_weight'
p42
(dp43
I0
I6
sI1
I10
ssbtp44
asS'memory'
p45
Nsb.