ccopy_reg
_reconstructor
p0
(csklearn.pipeline
Pipeline
p1
c__builtin__
object
p2
Ntp3
Rp4
(dp5
S'_sklearn_version'
p6
S'0.19.1'
p7
sS'steps'
p8
(lp9
(S'selector'
p10
g0
(csklearn.feature_selection.univariate_selection
SelectKBest
p11
g2
Ntp12
Rp13
(dp14
S'k'
p15
I5
sg6
g7
sS'score_func'
p16
csklearn.feature_selection.univariate_selection
f_classif
p17
sbtp18
a(S'scaler'
p19
g0
(csklearn.preprocessing.data
MinMaxScaler
p20
g2
Ntp21
Rp22
(dp23
S'copy'
p24
I01
sg6
g7
sS'feature_range'
p25
(I0
I1
tp26
sbtp27
a(S'clf'
p28
g0
(csklearn.cluster.k_means_
KMeans
p29
g2
Ntp30
Rp31
(dp32
S'n_jobs'
p33
I1
sS'verbose'
p34
I0
sS'n_clusters'
p35
I2
sS'precompute_distances'
p36
S'auto'
p37
sS'init'
p38
S'k-means++'
p39
sS'random_state'
p40
Nsg6
g7
sS'n_init'
p41
I10
sS'tol'
p42
F0.0001
sS'copy_x'
p43
I01
sS'algorithm'
p44
g37
sS'max_iter'
p45
I300
sbtp46
asS'memory'
p47
Nsb.