(dp0
S'METTS MARK'
p1
(dp2
S'salary'
p3
F365788.0
sS'to_messages'
p4
F807.0
sS'poi_email_ratio'
p5
F0.5684018028668538
sS'deferral_payments'
p6
F0.0
sS'total_payments'
p7
F1061827.0
sS'exercised_stock_options'
p8
F0.0
sS'bonus'
p9
F600000.0
sS'restricted_stock_deferred'
p10
F0.0
sS'total_stock_value'
p11
F585062.0
sS'expenses'
p12
F94299.0
sS'from_poi_to_this_person'
p13
F38.0
sS'loan_advances'
p14
F0.0
sS'from_messages'
p15
F29.0
sS'other'
p16
F1740.0
sS'from_this_person_to_poi'
p17
F1.0
sS'poi'
p18
I00
sS'deferred_income'
p19
F0.0
sS'long_term_incentive'
p20
F395480.5
sS'restricted_stock'
p21
F585062.0
sS'director_fees'
p22
F0.0
ssS'BAXTER JOHN C'
p23
(dp24
g3
F267102.0
sg4
F944.0
sg5
F0.0
sg6
F1295738.0
sg7
F5634343.0
sg8
F6680544.0
sg9
F1200000.0
sg10
F0.0
sg11
F10623258.0
sg12
F11200.0
sg13
F26.5
sg14
F0.0
sg15
F41.0
sg16
F2660303.0
sg17
F6.0
sg18
I00
sg19
F-1386055.0
sg20
F1586055.0
sg21
F3942714.0
sg22
F0.0
ssS'ELLIOTT STEVEN'
p25
(dp26
g3
F170941.0
sg4
F944.0
sg5
F0.0
sg6
F0.0
sg7
F211725.0
sg8
F4890344.0
sg9
F350000.0
sg10
F0.0
sg11
F6678735.0
sg12
F78552.0
sg13
F26.5
sg14
F0.0
sg15
F41.0
sg16
F12961.0
sg17
F6.0
sg18
I00
sg19
F-400729.0
sg20
F395480.5
sg21
F1788391.0
sg22
F0.0
ssS'CORDES WILLIAM R'
p27
(dp28
g3
F254570.0
sg4
F764.0
sg5
F0.45454545454545453
sg6
F0.0
sg7
F0.0
sg8
F651850.0
sg9
F0.0
sg10
F0.0
sg11
F1038185.0
sg12
F0.0
sg13
F10.0
sg14
F0.0
sg15
F12.0
sg16
F0.0
sg17
F0.0
sg18
I00
sg19
F0.0
sg20
F395480.5
sg21
F386335.0
sg22
F0.0
ssS'HANNON KEVIN P'
p29
(dp30
g3
F243293.0
sg4
F1045.0
sg5
F0.5196998123827392
sg6
F0.0
sg7
F288682.0
sg8
F5538001.0
sg9
F1500000.0
sg10
F0.0
sg11
F6391065.0
sg12
F34039.0
sg13
F32.0
sg14
F0.0
sg15
F32.0
sg16
F11350.0
sg17
F21.0
sg18
I01
sg19
F-3117011.0
sg20
F1617011.0
sg21
F853064.0
sg22
F0.0
ssS'MORDAUNT KRISTINA M'
p31
(dp32
g3
F267093.0
sg4
F944.0
sg5
F0.0
sg6
F0.0
sg7
F628522.0
sg8
F0.0
sg9
F325000.0
sg10
F0.0
sg11
F208510.0
sg12
F35018.0
sg13
F26.5
sg14
F0.0
sg15
F41.0
sg16
F1411.0
sg17
F6.0
sg18
I00
sg19
F0.0
sg20
F395480.5
sg21
F208510.0
sg22
F0.0
ssS'MEYER ROCKFORD G'
p33
(dp34
g3
F254570.0
sg4
F232.0
sg5
F0.0
sg6
F1848227.0
sg7
F1848227.0
sg8
F493489.0
sg9
F0.0
sg10
F0.0
sg11
F955873.0
sg12
F0.0
sg13
F0.0
sg14
F0.0
sg15
F28.0
sg16
F0.0
sg17
F0.0
sg18
I00
sg19
F0.0
sg20
F395480.5
sg21
F462384.0
sg22
F0.0
ssS'MCMAHON JEFFREY'
p35
(dp36
g3
F370448.0
sg4
F2355.0
sg5
F0.5580895929251226
sg6
F0.0
sg7
F4099771.0
sg8
F1104054.0
sg9
F2600000.0
sg10
F0.0
sg11
F1662855.0
sg12
F137108.0
sg13
F58.0
sg14
F0.0
sg15
F48.0
sg16
F297353.0
sg17
F26.0
sg18
I00
sg19
F0.0
sg20
F694862.0
sg21
F558801.0
sg22
F0.0
ssS'HORTON STANLEY C'
p37
(dp38
g3
F254570.0
sg4
F2350.0
sg5
F0.04573372121414011
sg6
F3131860.0
sg7
F3131860.0
sg8
F5210569.0
sg9
F0.0
sg10
F0.0
sg11
F7256648.0
sg12
F0.0
sg13
F44.0
sg14
F0.0
sg15
F1073.0
sg16
F0.0
sg17
F15.0
sg18
I00
sg19
F0.0
sg20
F395480.5
sg21
F2046079.0
sg22
F0.0
ssS'PIPER GREGORY F'
p39
(dp40
g3
F197091.0
sg4
F1238.0
sg5
F0.25287274206046084
sg6
F1130036.0
sg7
F1737629.0
sg8
F880290.0
sg9
F400000.0
sg10
F-409554.0
sg11
F880290.0
sg12
F43057.0
sg13
F61.0
sg14
F0.0
sg15
F222.0
sg16
F778.0
sg17
F48.0
sg18
I00
sg19
F-33333.0
sg20
F395480.5
sg21
F409554.0
sg22
F0.0
ssS'HUMPHREY GENE E'
p41
(dp42
g3
F130724.0
sg4
F128.0
sg5
F0.4876117496807152
sg6
F2964506.0
sg7
F3100224.0
sg8
F2282768.0
sg9
F0.0
sg10
F0.0
sg11
F2282768.0
sg12
F4994.0
sg13
F10.0
sg14
F0.0
sg15
F17.0
sg16
F0.0
sg17
F17.0
sg18
I00
sg19
F0.0
sg20
F395480.5
sg21
F0.0
sg22
F0.0
ssS'UMANOFF ADAM S'
p43
(dp44
g3
F288589.0
sg4
F111.0
sg5
F0.4
sg6
F0.0
sg7
F1130461.0
sg8
F0.0
sg9
F788750.0
sg10
F0.0
sg11
F0.0
sg12
F53122.0
sg13
F12.0
sg14
F0.0
sg15
F18.0
sg16
F0.0
sg17
F0.0
sg18
I00
sg19
F0.0
sg20
F395480.5
sg21
F0.0
sg22
F0.0
ssS'BLACHMAN JEREMY M'
p45
(dp46
g3
F248546.0
sg4
F2475.0
sg5
F0.6418330693663759
sg6
F0.0
sg7
F2014835.0
sg8
F765313.0
sg9
F850000.0
sg10
F0.0
sg11
F954354.0
sg12
F84208.0
sg13
F25.0
sg14
F0.0
sg15
F14.0
sg16
F272.0
sg17
F2.0
sg18
I00
sg19
F0.0
sg20
F831809.0
sg21
F189041.0
sg22
F0.0
ssS'SUNDE MARTIN'
p47
(dp48
g3
F257486.0
sg4
F2647.0
sg5
F0.4982205513784461
sg6
F0.0
sg7
F1545059.0
sg8
F0.0
sg9
F700000.0
sg10
F0.0
sg11
F698920.0
sg12
F0.0
sg13
F37.0
sg14
F0.0
sg15
F38.0
sg16
F111122.0
sg17
F13.0
sg18
I00
sg19
F0.0
sg20
F476451.0
sg21
F698920.0
sg22
F0.0
ssS'GIBBS DANA R'
p49
(dp50
g3
F254570.0
sg4
F169.0
sg5
F0.0
sg6
F504610.0
sg7
F966522.0
sg8
F2218275.0
sg9
F0.0
sg10
F0.0
sg11
F2218275.0
sg12
F0.0
sg13
F0.0
sg14
F0.0
sg15
F12.0
sg16
F0.0
sg17
F0.0
sg18
I00
sg19
F0.0
sg20
F461912.0
sg21
F0.0
sg22
F0.0
ssS'LOWRY CHARLES P'
p51
(dp52
g3
F254570.0
sg4
F944.0
sg5
F0.0
sg6
F0.0
sg7
F0.0
sg8
F372205.0
sg9
F0.0
sg10
F-153686.0
sg11
F372205.0
sg12
F0.0
sg13
F26.5
sg14
F0.0
sg15
F41.0
sg16
F0.0
sg17
F6.0
sg18
I00
sg19
F0.0
sg20
F395480.5
sg21
F153686.0
sg22
F0.0
ssS'COLWELL WESLEY'
p53
(dp54
g3
F288542.0
sg4
F1758.0
sg5
F0.8633610595170799
sg6
F27610.0
sg7
F1490344.0
sg8
F0.0
sg9
F1200000.0
sg10
F0.0
sg11
F698242.0
sg12
F16514.0
sg13
F240.0
sg14
F0.0
sg15
F40.0
sg16
F101740.0
sg17
F11.0
sg18
I01
sg19
F-144062.0
sg20
F1134637.0
sg21
F698242.0
sg22
F0.0
ssS'MULLER MARK S'
p55
(dp56
g3
F251654.0
sg4
F136.0
sg5
F0.42857142857142855
sg6
F842924.0
sg7
F3202070.0
sg8
F1056320.0
sg9
F1100000.0
sg10
F0.0
sg11
F1416848.0
sg12
F0.0
sg13
F12.0
sg14
F0.0
sg15
F16.0
sg16
F947.0
sg17
F0.0
sg18
I00
sg19
F-719000.0
sg20
F1725545.0
sg21
F360528.0
sg22
F0.0
ssS'JACKSON CHARLENE R'
p57
(dp58
g3
F288558.0
sg4
F258.0
sg5
F0.37723403307037484
sg6
F0.0
sg7
F551174.0
sg8
F185063.0
sg9
F250000.0
sg10
F0.0
sg11
F725735.0
sg12
F10181.0
sg13
F25.0
sg14
F0.0
sg15
F56.0
sg16
F2435.0
sg17
F19.0
sg18
I00
sg19
F0.0
sg20
F395480.5
sg21
F540672.0
sg22
F0.0
ssS'WESTFAHL RICHARD K'
p59
(dp60
g3
F63744.0
sg4
F944.0
sg5
F0.0
sg6
F0.0
sg7
F762135.0
sg8
F0.0
sg9
F0.0
sg10
F0.0
sg11
F384930.0
sg12
F51870.0
sg13
F26.5
sg14
F0.0
sg15
F41.0
sg16
F401130.0
sg17
F6.0
sg18
I00
sg19
F-10800.0
sg20
F256191.0
sg21
F384930.0
sg22
F0.0
ssS'WALTERS GARETH W'
p61
(dp62
g3
F254570.0
sg4
F944.0
sg5
F0.0
sg6
F53625.0
sg7
F87410.0
sg8
F1030329.0
sg9
F0.0
sg10
F0.0
sg11
F1030329.0
sg12
F33785.0
sg13
F26.5
sg14
F0.0
sg15
F41.0
sg16
F0.0
sg17
F6.0
sg18
I00
sg19
F0.0
sg20
F395480.5
sg21
F0.0
sg22
F0.0
ssS'WALLS JR ROBERT H'
p63
(dp64
g3
F357091.0
sg4
F671.0
sg5
F0.10429447852760736
sg6
F0.0
sg7
F1798780.0
sg8
F4346544.0
sg9
F850000.0
sg10
F0.0
sg11
F5898997.0
sg12
F50936.0
sg13
F17.0
sg14
F0.0
sg15
F146.0
sg16
F2.0
sg17
F0.0
sg18
I00
sg19
F0.0
sg20
F540751.0
sg21
F1552453.0
sg22
F0.0
ssS'KITCHEN LOUISE'
p65
(dp66
g3
F271442.0
sg4
F8305.0
sg5
F0.14965794804739088
sg6
F0.0
sg7
F3471141.0
sg8
F81042.0
sg9
F3100000.0
sg10
F0.0
sg11
F547143.0
sg12
F5774.0
sg13
F251.0
sg14
F0.0
sg15
F1728.0
sg16
F93925.0
sg17
F194.0
sg18
I00
sg19
F0.0
sg20
F395480.5
sg21
F466101.0
sg22
F0.0
ssS'CHAN RONNIE'
p67
(dp68
g3
F254570.0
sg4
F944.0
sg5
F0.0
sg6
F0.0
sg7
F0.0
sg8
F0.0
sg9
F0.0
sg10
F-32460.0
sg11
F0.0
sg12
F0.0
sg13
F26.5
sg14
F0.0
sg15
F41.0
sg16
F0.0
sg17
F6.0
sg18
I00
sg19
F-98784.0
sg20
F395480.5
sg21
F32460.0
sg22
F98784.0
ssS'BELFER ROBERT'
p69
(dp70
g3
F254570.0
sg4
F944.0
sg5
F0.0
sg6
F-102500.0
sg7
F102500.0
sg8
F3285.0
sg9
F0.0
sg10
F44093.0
sg11
F-44093.0
sg12
F0.0
sg13
F26.5
sg14
F0.0
sg15
F41.0
sg16
F0.0
sg17
F6.0
sg18
I00
sg19
F0.0
sg20
F395480.5
sg21
F0.0
sg22
F3285.0
ssS'SHANKMAN JEFFREY A'
p71
(dp72
g3
F304110.0
sg4
F3221.0
sg5
F0.05899493924917654
sg6
F0.0
sg7
F3038702.0
sg8
F1441898.0
sg9
F2000000.0
sg10
F0.0
sg11
F2072035.0
sg12
F178979.0
sg13
F94.0
sg14
F0.0
sg15
F2681.0
sg16
F1191.0
sg17
F83.0
sg18
I00
sg19
F0.0
sg20
F554422.0
sg21
F630137.0
sg22
F0.0
ssS'WODRASKA JOHN'
p73
(dp74
g3
F254570.0
sg4
F944.0
sg5
F0.0
sg6
F0.0
sg7
F189583.0
sg8
F0.0
sg9
F0.0
sg10
F0.0
sg11
F0.0
sg12
F0.0
sg13
F26.5
sg14
F0.0
sg15
F41.0
sg16
F189583.0
sg17
F6.0
sg18
I00
sg19
F0.0
sg20
F395480.5
sg21
F0.0
sg22
F0.0
ssS'BERGSIEKER RICHARD P'
p75
(dp76
g3
F187922.0
sg4
F383.0
sg5
F0.06349206349206349
sg6
F0.0
sg7
F618850.0
sg8
F0.0
sg9
F250000.0
sg10
F0.0
sg11
F659249.0
sg12
F59175.0
sg13
F4.0
sg14
F0.0
sg15
F59.0
sg16
F427316.0
sg17
F0.0
sg18
I00
sg19
F-485813.0
sg20
F180250.0
sg21
F659249.0
sg22
F0.0
ssS'URQUHART JOHN A'
p77
(dp78
g3
F254570.0
sg4
F944.0
sg5
F0.0
sg6
F0.0
sg7
F228656.0
sg8
F0.0
sg9
F0.0
sg10
F0.0
sg11
F0.0
sg12
F228656.0
sg13
F26.5
sg14
F0.0
sg15
F41.0
sg16
F0.0
sg17
F6.0
sg18
I00
sg19
F-36666.0
sg20
F395480.5
sg21
F0.0
sg22
F36666.0
ssS'BIBI PHILIPPE A'
p79
(dp80
g3
F213625.0
sg4
F1607.0
sg5
F0.37003292545088207
sg6
F0.0
sg7
F2047593.0
sg8
F1465734.0
sg9
F1000000.0
sg10
F0.0
sg11
F1843816.0
sg12
F38559.0
sg13
F23.0
sg14
F0.0
sg15
F40.0
sg16
F425688.0
sg17
F8.0
sg18
I00
sg19
F0.0
sg20
F369721.0
sg21
F378082.0
sg22
F0.0
ssS'PIRO JIM'
p81
(dp82
g3
F254570.0
sg4
F58.0
sg5
F0.01694915254237288
sg6
F0.0
sg7
F0.0
sg8
F0.0
sg9
F0.0
sg10
F0.0
sg11
F47304.0
sg12
F0.0
sg13
F0.0
sg14
F0.0
sg15
F16.0
sg16
F0.0
sg17
F1.0
sg18
I00
sg19
F0.0
sg20
F395480.5
sg21
F47304.0
sg22
F0.0
ssS'RIEKER PAULA H'
p83
(dp84
g3
F249201.0
sg4
F1328.0
sg5
F0.3340290200755317
sg6
F214678.0
sg7
F1099100.0
sg8
F1635238.0
sg9
F700000.0
sg10
F0.0
sg11
F1918887.0
sg12
F33271.0
sg13
F35.0
sg14
F0.0
sg15
F82.0
sg16
F1950.0
sg17
F48.0
sg18
I01
sg19
F-100000.0
sg20
F1134637.0
sg21
F283649.0
sg22
F0.0
ssS'WHALEY DAVID A'
p85
(dp86
g3
F254570.0
sg4
F944.0
sg5
F0.0
sg6
F0.0
sg7
F0.0
sg8
F98718.0
sg9
F0.0
sg10
F0.0
sg11
F98718.0
sg12
F0.0
sg13
F26.5
sg14
F0.0
sg15
F41.0
sg16
F0.0
sg17
F6.0
sg18
I00
sg19
F0.0
sg20
F395480.5
sg21
F0.0
sg22
F0.0
ssS'BECK SALLY W'
p87
(dp88
g3
F231330.0
sg4
F7315.0
sg5
F0.08221607288243893
sg6
F0.0
sg7
F969068.0
sg8
F0.0
sg9
F700000.0
sg10
F0.0
sg11
F126027.0
sg12
F37172.0
sg13
F144.0
sg14
F0.0
sg15
F4343.0
sg16
F566.0
sg17
F386.0
sg18
I00
sg19
F0.0
sg20
F395480.5
sg21
F126027.0
sg22
F0.0
ssS'HAUG DAVID L'
p89
(dp90
g3
F254570.0
sg4
F573.0
sg5
F0.18598200899550224
sg6
F0.0
sg7
F475.0
sg8
F0.0
sg9
F0.0
sg10
F0.0
sg11
F2217299.0
sg12
F475.0
sg13
F4.0
sg14
F0.0
sg15
F19.0
sg16
F0.0
sg17
F7.0
sg18
I00
sg19
F0.0
sg20
F395480.5
sg21
F2217299.0
sg22
F0.0
ssS'ECHOLS JOHN B'
p91
(dp92
g3
F182245.0
sg4
F944.0
sg5
F0.0
sg6
F0.0
sg7
F2692324.0
sg8
F601438.0
sg9
F200000.0
sg10
F0.0
sg11
F1008941.0
sg12
F21530.0
sg13
F26.5
sg14
F0.0
sg15
F41.0
sg16
F53775.0
sg17
F6.0
sg18
I00
sg19
F0.0
sg20
F2234774.0
sg21
F407503.0
sg22
F0.0
ssS'MENDELSOHN JOHN'
p93
(dp94
g3
F254570.0
sg4
F944.0
sg5
F0.0
sg6
F0.0
sg7
F148.0
sg8
F0.0
sg9
F0.0
sg10
F0.0
sg11
F0.0
sg12
F148.0
sg13
F26.5
sg14
F0.0
sg15
F41.0
sg16
F0.0
sg17
F6.0
sg18
I00
sg19
F-103750.0
sg20
F395480.5
sg21
F0.0
sg22
F103750.0
ssS'HICKERSON GARY J'
p95
(dp96
g3
F211788.0
sg4
F1320.0
sg5
F0.5977719276441411
sg6
F0.0
sg7
F2081796.0
sg8
F0.0
sg9
F1700000.0
sg10
F0.0
sg11
F441096.0
sg12
F98849.0
sg13
F40.0
sg14
F0.0
sg15
F27.0
sg16
F1936.0
sg17
F1.0
sg18
I00
sg19
F0.0
sg20
F69223.0
sg21
F441096.0
sg22
F0.0
ssS'CLINE KENNETH W'
p97
(dp98
g3
F254570.0
sg4
F944.0
sg5
F0.0
sg6
F0.0
sg7
F0.0
sg8
F0.0
sg9
F0.0
sg10
F-472568.0
sg11
F189518.0
sg12
F0.0
sg13
F26.5
sg14
F0.0
sg15
F41.0
sg16
F0.0
sg17
F6.0
sg18
I00
sg19
F0.0
sg20
F395480.5
sg21
F662086.0
sg22
F0.0
ssS'LEWIS RICHARD'
p99
(dp100
g3
F254570.0
sg4
F952.0
sg5
F0.2777777777777778
sg6
F0.0
sg7
F0.0
sg8
F850477.0
sg9
F0.0
sg10
F0.0
sg11
F850477.0
sg12
F0.0
sg13
F10.0
sg14
F0.0
sg15
F26.0
sg16
F0.0
sg17
F0.0
sg18
I00
sg19
F0.0
sg20
F395480.5
sg21
F0.0
sg22
F0.0
ssS'HAYES ROBERT E'
p101
(dp102
g3
F254570.0
sg4
F504.0
sg5
F0.5714285714285714
sg6
F7961.0
sg7
F7961.0
sg8
F0.0
sg9
F0.0
sg10
F0.0
sg11
F151418.0
sg12
F0.0
sg13
F16.0
sg14
F0.0
sg15
F12.0
sg16
F0.0
sg17
F0.0
sg18
I00
sg19
F0.0
sg20
F395480.5
sg21
F151418.0
sg22
F0.0
ssS'KOPPER MICHAEL J'
p103
(dp104
g3
F224305.0
sg4
F1875.0
sg5
F0.0
sg6
F0.0
sg7
F2652612.0
sg8
F0.0
sg9
F800000.0
sg10
F0.0
sg11
F985032.0
sg12
F118134.0
sg13
F62.0
sg14
F0.0
sg15
F44.5
sg16
F907502.0
sg17
F15.5
sg18
I01
sg19
F0.0
sg20
F602671.0
sg21
F985032.0
sg22
F0.0
ssS'LEFF DANIEL P'
p105
(dp106
g3
F273746.0
sg4
F2822.0
sg5
F0.5203211457090159
sg6
F0.0
sg7
F2664228.0
sg8
F0.0
sg9
F1000000.0
sg10
F0.0
sg11
F360528.0
sg12
F0.0
sg13
F67.0
sg14
F0.0
sg15
F63.0
sg16
F3083.0
sg17
F14.0
sg18
I00
sg19
F0.0
sg20
F1387399.0
sg21
F360528.0
sg22
F0.0
ssS'LAVORATO JOHN J'
p107
(dp108
g3
F339288.0
sg4
F7259.0
sg5
F0.22319670507368897
sg6
F0.0
sg7
F10425757.0
sg8
F4158995.0
sg9
F8000000.0
sg10
F0.0
sg11
F5167144.0
sg12
F49537.0
sg13
F528.0
sg14
F0.0
sg15
F2585.0
sg16
F1552.0
sg17
F411.0
sg18
I00
sg19
F0.0
sg20
F2035380.0
sg21
F1008149.0
sg22
F0.0
ssS'BERBERIAN DAVID'
p109
(dp110
g3
F216582.0
sg4
F944.0
sg5
F0.0
sg6
F0.0
sg7
F228474.0
sg8
F1624396.0
sg9
F0.0
sg10
F0.0
sg11
F2493616.0
sg12
F11892.0
sg13
F26.5
sg14
F0.0
sg15
F41.0
sg16
F0.0
sg17
F6.0
sg18
I00
sg19
F0.0
sg20
F395480.5
sg21
F869220.0
sg22
F0.0
ssS'DETMERING TIMOTHY J'
p111
(dp112
g3
F210500.0
sg4
F944.0
sg5
F0.0
sg6
F875307.0
sg7
F1204583.0
sg8
F2027865.0
sg9
F425000.0
sg10
F-315068.0
sg11
F2027865.0
sg12
F52255.0
sg13
F26.5
sg14
F0.0
sg15
F41.0
sg16
F1105.0
sg17
F6.0
sg18
I00
sg19
F-775241.0
sg20
F415657.0
sg21
F315068.0
sg22
F0.0
ssS'WAKEHAM JOHN'
p113
(dp114
g3
F254570.0
sg4
F944.0
sg5
F0.0
sg6
F0.0
sg7
F213071.0
sg8
F0.0
sg9
F0.0
sg10
F0.0
sg11
F0.0
sg12
F103773.0
sg13
F26.5
sg14
F0.0
sg15
F41.0
sg16
F0.0
sg17
F6.0
sg18
I00
sg19
F0.0
sg20
F395480.5
sg21
F0.0
sg22
F109298.0
ssS'POWERS WILLIAM'
p115
(dp116
g3
F254570.0
sg4
F653.0
sg5
F0.0
sg6
F0.0
sg7
F0.0
sg8
F0.0
sg9
F0.0
sg10
F0.0
sg11
F0.0
sg12
F0.0
sg13
F0.0
sg14
F0.0
sg15
F26.0
sg16
F0.0
sg17
F0.0
sg18
I00
sg19
F-17500.0
sg20
F395480.5
sg21
F0.0
sg22
F17500.0
ssS'GOLD JOSEPH'
p117
(dp118
g3
F272880.0
sg4
F944.0
sg5
F0.0
sg6
F0.0
sg7
F2146973.0
sg8
F436515.0
sg9
F750000.0
sg10
F0.0
sg11
F877611.0
sg12
F0.0
sg13
F26.5
sg14
F0.0
sg15
F41.0
sg16
F819288.0
sg17
F6.0
sg18
I00
sg19
F0.0
sg20
F304805.0
sg21
F441096.0
sg22
F0.0
ssS'BANNANTINE JAMES M'
p119
(dp120
g3
F477.0
sg4
F566.0
sg5
F0.5735294117647058
sg6
F0.0
sg7
F916197.0
sg8
F4046157.0
sg9
F0.0
sg10
F-560222.0
sg11
F5243487.0
sg12
F56301.0
sg13
F39.0
sg14
F0.0
sg15
F29.0
sg16
F864523.0
sg17
F0.0
sg18
I00
sg19
F-5104.0
sg20
F395480.5
sg21
F1757552.0
sg22
F0.0
ssS'DUNCAN JOHN H'
p121
(dp122
g3
F254570.0
sg4
F944.0
sg5
F0.0
sg6
F0.0
sg7
F77492.0
sg8
F371750.0
sg9
F0.0
sg10
F0.0
sg11
F371750.0
sg12
F0.0
sg13
F26.5
sg14
F0.0
sg15
F41.0
sg16
F0.0
sg17
F6.0
sg18
I00
sg19
F-25000.0
sg20
F395480.5
sg21
F0.0
sg22
F102492.0
ssS'SHAPIRO RICHARD S'
p123
(dp124
g3
F269076.0
sg4
F15149.0
sg5
F0.06168122476715181
sg6
F0.0
sg7
F1057548.0
sg8
F607837.0
sg9
F650000.0
sg10
F0.0
sg11
F987001.0
sg12
F137767.0
sg13
F74.0
sg14
F0.0
sg15
F1215.0
sg16
F705.0
sg17
F65.0
sg18
I00
sg19
F0.0
sg20
F395480.5
sg21
F379164.0
sg22
F0.0
ssS'SHERRIFF JOHN R'
p125
(dp126
g3
F428780.0
sg4
F3187.0
sg5
F0.24049844236760126
sg6
F0.0
sg7
F4335388.0
sg8
F1835558.0
sg9
F1500000.0
sg10
F0.0
sg11
F3128982.0
sg12
F0.0
sg13
F28.0
sg14
F0.0
sg15
F92.0
sg16
F1852186.0
sg17
F23.0
sg18
I00
sg19
F0.0
sg20
F554422.0
sg21
F1293424.0
sg22
F0.0
ssS'SHELBY REX'
p127
(dp128
g3
F211844.0
sg4
F225.0
sg5
F0.30857740585774057
sg6
F0.0
sg7
F2003885.0
sg8
F1624396.0
sg9
F200000.0
sg10
F0.0
sg11
F2493616.0
sg12
F22884.0
sg13
F13.0
sg14
F0.0
sg15
F39.0
sg16
F1573324.0
sg17
F14.0
sg18
I01
sg19
F-4167.0
sg20
F1134637.0
sg21
F869220.0
sg22
F0.0
ssS'LEMAISTRE CHARLES'
p129
(dp130
g3
F254570.0
sg4
F944.0
sg5
F0.0
sg6
F0.0
sg7
F87492.0
sg8
F412878.0
sg9
F0.0
sg10
F0.0
sg11
F412878.0
sg12
F0.0
sg13
F26.5
sg14
F0.0
sg15
F41.0
sg16
F0.0
sg17
F6.0
sg18
I00
sg19
F-25000.0
sg20
F395480.5
sg21
F0.0
sg22
F112492.0
ssS'DEFFNER JOSEPH M'
p131
(dp132
g3
F206121.0
sg4
F714.0
sg5
F0.614036639106277
sg6
F0.0
sg7
F1208649.0
sg8
F17378.0
sg9
F600000.0
sg10
F0.0
sg11
F159211.0
sg12
F41626.0
sg13
F115.0
sg14
F0.0
sg15
F74.0
sg16
F25553.0
sg17
F4.0
sg18
I00
sg19
F0.0
sg20
F335349.0
sg21
F141833.0
sg22
F0.0
ssS'KISHKILL JOSEPH G'
p133
(dp134
g3
F174246.0
sg4
F944.0
sg5
F0.0
sg6
F0.0
sg7
F704896.0
sg8
F0.0
sg9
F0.0
sg10
F0.0
sg11
F1034346.0
sg12
F116335.0
sg13
F26.5
sg14
F0.0
sg15
F41.0
sg16
F465357.0
sg17
F6.0
sg18
I00
sg19
F-51042.0
sg20
F395480.5
sg21
F1034346.0
sg22
F0.0
ssS'WHALLEY LAWRENCE G'
p135
(dp136
g3
F510364.0
sg4
F6019.0
sg5
F0.25464539176334205
sg6
F0.0
sg7
F4677574.0
sg8
F3282960.0
sg9
F3000000.0
sg10
F0.0
sg11
F6079137.0
sg12
F57838.0
sg13
F186.0
sg14
F0.0
sg15
F556.0
sg16
F301026.0
sg17
F24.0
sg18
I00
sg19
F0.0
sg20
F808346.0
sg21
F2796177.0
sg22
F0.0
ssS'MCCARTY DANNY J'
p137
(dp138
g3
F254570.0
sg4
F1433.0
sg5
F0.10556039488966319
sg6
F0.0
sg7
F0.0
sg8
F664375.0
sg9
F0.0
sg10
F0.0
sg11
F758931.0
sg12
F0.0
sg13
F25.0
sg14
F0.0
sg15
F215.0
sg16
F0.0
sg17
F2.0
sg18
I00
sg19
F0.0
sg20
F395480.5
sg21
F94556.0
sg22
F0.0
ssS'MCCONNELL MICHAEL S'
p139
(dp140
g3
F365038.0
sg4
F3329.0
sg5
F0.08752965440734153
sg6
F0.0
sg7
F2101364.0
sg8
F1623010.0
sg9
F1100000.0
sg10
F0.0
sg11
F3101279.0
sg12
F81364.0
sg13
F92.0
sg14
F0.0
sg15
F2742.0
sg16
F540.0
sg17
F194.0
sg18
I00
sg19
F0.0
sg20
F554422.0
sg21
F1478269.0
sg22
F0.0
ssS'DELAINEY DAVID W'
p141
(dp142
g3
F365163.0
sg4
F3093.0
sg5
F0.1855583041883477
sg6
F0.0
sg7
F4747979.0
sg8
F2291113.0
sg9
F3000000.0
sg10
F0.0
sg11
F3614261.0
sg12
F86174.0
sg13
F66.0
sg14
F0.0
sg15
F3069.0
sg16
F1661.0
sg17
F609.0
sg18
I01
sg19
F0.0
sg20
F1294981.0
sg21
F1323148.0
sg22
F0.0
ssS'SULLIVAN-SHAKLOVITZ COLLEEN'
p143
(dp144
g3
F162779.0
sg4
F944.0
sg5
F0.0
sg6
F181993.0
sg7
F999356.0
sg8
F1362375.0
sg9
F100000.0
sg10
F0.0
sg11
F1362375.0
sg12
F0.0
sg13
F26.5
sg14
F0.0
sg15
F41.0
sg16
F162.0
sg17
F6.0
sg18
I00
sg19
F0.0
sg20
F554422.0
sg21
F0.0
sg22
F0.0
ssS'WROBEL BRUCE'
p145
(dp146
g3
F254570.0
sg4
F944.0
sg5
F0.0
sg6
F0.0
sg7
F0.0
sg8
F139130.0
sg9
F0.0
sg10
F0.0
sg11
F139130.0
sg12
F0.0
sg13
F26.5
sg14
F0.0
sg15
F41.0
sg16
F0.0
sg17
F6.0
sg18
I00
sg19
F0.0
sg20
F395480.5
sg21
F0.0
sg22
F0.0
ssS'LINDHOLM TOD A'
p147
(dp148
g3
F236457.0
sg4
F944.0
sg5
F0.0
sg6
F204075.0
sg7
F875889.0
sg8
F2549361.0
sg9
F200000.0
sg10
F0.0
sg11
F3064208.0
sg12
F57727.0
sg13
F26.5
sg14
F0.0
sg15
F41.0
sg16
F2630.0
sg17
F6.0
sg18
I00
sg19
F0.0
sg20
F175000.0
sg21
F514847.0
sg22
F0.0
ssS'MEYER JEROME J'
p149
(dp150
g3
F254570.0
sg4
F944.0
sg5
F0.0
sg6
F0.0
sg7
F2151.0
sg8
F0.0
sg9
F0.0
sg10
F0.0
sg11
F0.0
sg12
F2151.0
sg13
F26.5
sg14
F0.0
sg15
F41.0
sg16
F0.0
sg17
F6.0
sg18
I00
sg19
F-38346.0
sg20
F395480.5
sg21
F0.0
sg22
F38346.0
ssS'LAY KENNETH L'
p151
(dp152
g3
F1072321.0
sg4
F4273.0
sg5
F0.7773153789641778
sg6
F202911.0
sg7
F103559793.0
sg8
F34348384.0
sg9
F7000000.0
sg10
F0.0
sg11
F49110078.0
sg12
F99832.0
sg13
F123.0
sg14
F81525000.0
sg15
F36.0
sg16
F10359729.0
sg17
F16.0
sg18
I01
sg19
F-300000.0
sg20
F3600000.0
sg21
F14761694.0
sg22
F0.0
ssS'BUTTS ROBERT H'
p153
(dp154
g3
F261516.0
sg4
F944.0
sg5
F0.0
sg6
F0.0
sg7
F1271582.0
sg8
F0.0
sg9
F750000.0
sg10
F0.0
sg11
F417619.0
sg12
F9410.0
sg13
F26.5
sg14
F0.0
sg15
F41.0
sg16
F150656.0
sg17
F6.0
sg18
I00
sg19
F-75000.0
sg20
F175000.0
sg21
F417619.0
sg22
F0.0
ssS'OLSON CINDY K'
p155
(dp156
g3
F329078.0
sg4
F1184.0
sg5
F0.29028820313223985
sg6
F77716.0
sg7
F1321557.0
sg8
F1637034.0
sg9
F750000.0
sg10
F0.0
sg11
F2606763.0
sg12
F63791.0
sg13
F20.0
sg14
F0.0
sg15
F52.0
sg16
F972.0
sg17
F15.0
sg18
I00
sg19
F0.0
sg20
F100000.0
sg21
F969729.0
sg22
F0.0
ssS'MCDONALD REBECCA'
p157
(dp158
g3
F254570.0
sg4
F894.0
sg5
F0.8070874676894856
sg6
F0.0
sg7
F0.0
sg8
F757301.0
sg9
F0.0
sg10
F0.0
sg11
F1691366.0
sg12
F0.0
sg13
F54.0
sg14
F0.0
sg15
F13.0
sg16
F0.0
sg17
F1.0
sg18
I00
sg19
F0.0
sg20
F395480.5
sg21
F934065.0
sg22
F0.0
ssS'CUMBERLAND MICHAEL S'
p159
(dp160
g3
F184899.0
sg4
F944.0
sg5
F0.0
sg6
F0.0
sg7
F807956.0
sg8
F0.0
sg9
F325000.0
sg10
F0.0
sg11
F207940.0
sg12
F22344.0
sg13
F26.5
sg14
F0.0
sg15
F41.0
sg16
F713.0
sg17
F6.0
sg18
I00
sg19
F0.0
sg20
F275000.0
sg21
F207940.0
sg22
F0.0
ssS'GAHN ROBERT S'
p161
(dp162
g3
F192008.0
sg4
F944.0
sg5
F0.0
sg6
F73122.0
sg7
F900585.0
sg8
F83237.0
sg9
F509870.0
sg10
F0.0
sg11
F318607.0
sg12
F50080.0
sg13
F26.5
sg14
F0.0
sg15
F41.0
sg16
F76547.0
sg17
F6.0
sg18
I00
sg19
F-1042.0
sg20
F395480.5
sg21
F235370.0
sg22
F0.0
ssS'MCCLELLAN GEORGE'
p163
(dp164
g3
F263413.0
sg4
F1744.0
sg5
F0.5148514851485149
sg6
F0.0
sg7
F1318763.0
sg8
F506765.0
sg9
F900000.0
sg10
F0.0
sg11
F947861.0
sg12
F228763.0
sg13
F52.0
sg14
F0.0
sg15
F49.0
sg16
F51587.0
sg17
F0.0
sg18
I00
sg19
F-125000.0
sg20
F395480.5
sg21
F441096.0
sg22
F0.0
ssS'HERMANN ROBERT J'
p165
(dp166
g3
F262663.0
sg4
F944.0
sg5
F0.0
sg6
F0.0
sg7
F1297461.0
sg8
F187500.0
sg9
F700000.0
sg10
F0.0
sg11
F668132.0
sg12
F48357.0
sg13
F26.5
sg14
F0.0
sg15
F41.0
sg16
F416441.0
sg17
F6.0
sg18
I00
sg19
F-280000.0
sg20
F150000.0
sg21
F480632.0
sg22
F0.0
ssS'SCRIMSHAW MATTHEW'
p167
(dp168
g3
F254570.0
sg4
F944.0
sg5
F0.0
sg6
F0.0
sg7
F0.0
sg8
F759557.0
sg9
F0.0
sg10
F0.0
sg11
F759557.0
sg12
F0.0
sg13
F26.5
sg14
F0.0
sg15
F41.0
sg16
F0.0
sg17
F6.0
sg18
I00
sg19
F0.0
sg20
F395480.5
sg21
F0.0
sg22
F0.0
ssS'GATHMANN WILLIAM D'
p169
(dp170
g3
F254570.0
sg4
F944.0
sg5
F0.0
sg6
F0.0
sg7
F0.0
sg8
F1753766.0
sg9
F0.0
sg10
F-72419.0
sg11
F1945360.0
sg12
F0.0
sg13
F26.5
sg14
F0.0
sg15
F41.0
sg16
F0.0
sg17
F6.0
sg18
I00
sg19
F0.0
sg20
F395480.5
sg21
F264013.0
sg22
F0.0
ssS'HAEDICKE MARK E'
p171
(dp172
g3
F374125.0
sg4
F4009.0
sg5
F0.09985334440779986
sg6
F2157527.0
sg7
F3859065.0
sg8
F608750.0
sg9
F1150000.0
sg10
F-329825.0
sg11
F803094.0
sg12
F76169.0
sg13
F180.0
sg14
F0.0
sg15
F1941.0
sg16
F52382.0
sg17
F61.0
sg18
I00
sg19
F-934484.0
sg20
F983346.0
sg21
F524169.0
sg22
F0.0
ssS'BOWEN JR RAYMOND M'
p173
(dp174
g3
F278601.0
sg4
F1858.0
sg5
F0.8463318957386881
sg6
F0.0
sg7
F2669589.0
sg8
F0.0
sg9
F1350000.0
sg10
F0.0
sg11
F252055.0
sg12
F65907.0
sg13
F140.0
sg14
F0.0
sg15
F27.0
sg16
F1621.0
sg17
F15.0
sg18
I01
sg19
F-833.0
sg20
F974293.0
sg21
F252055.0
sg22
F0.0
ssS'GILLIS JOHN'
p175
(dp176
g3
F254570.0
sg4
F944.0
sg5
F0.0
sg6
F0.0
sg7
F0.0
sg8
F9803.0
sg9
F0.0
sg10
F0.0
sg11
F85641.0
sg12
F0.0
sg13
F26.5
sg14
F0.0
sg15
F41.0
sg16
F0.0
sg17
F6.0
sg18
I00
sg19
F0.0
sg20
F395480.5
sg21
F75838.0
sg22
F0.0
ssS'FITZGERALD JAY L'
p177
(dp178
g3
F199157.0
sg4
F936.0
sg5
F0.06729810568295115
sg6
F0.0
sg7
F1414857.0
sg8
F664461.0
sg9
F350000.0
sg10
F0.0
sg11
F1621236.0
sg12
F23870.0
sg13
F1.0
sg14
F0.0
sg15
F16.0
sg16
F285414.0
sg17
F8.0
sg18
I00
sg19
F0.0
sg20
F556416.0
sg21
F956775.0
sg22
F0.0
ssS'MORAN MICHAEL P'
p179
(dp180
g3
F254570.0
sg4
F672.0
sg5
F0.0
sg6
F0.0
sg7
F0.0
sg8
F59539.0
sg9
F0.0
sg10
F0.0
sg11
F221141.0
sg12
F0.0
sg13
F0.0
sg14
F0.0
sg15
F19.0
sg16
F0.0
sg17
F0.0
sg18
I00
sg19
F0.0
sg20
F395480.5
sg21
F161602.0
sg22
F0.0
ssS'REDMOND BRIAN L'
p181
(dp182
g3
F96840.0
sg4
F1671.0
sg5
F0.5084883720930232
sg6
F0.0
sg7
F111529.0
sg8
F7509039.0
sg9
F0.0
sg10
F0.0
sg11
F7890324.0
sg12
F14689.0
sg13
F204.0
sg14
F0.0
sg15
F221.0
sg16
F0.0
sg17
F49.0
sg18
I00
sg19
F0.0
sg20
F395480.5
sg21
F381285.0
sg22
F0.0
ssS'BAZELIDES PHILIP J'
p183
(dp184
g3
F80818.0
sg4
F944.0
sg5
F0.0
sg6
F684694.0
sg7
F860136.0
sg8
F1599641.0
sg9
F0.0
sg10
F0.0
sg11
F1599641.0
sg12
F0.0
sg13
F26.5
sg14
F0.0
sg15
F41.0
sg16
F874.0
sg17
F6.0
sg18
I00
sg19
F0.0
sg20
F93750.0
sg21
F0.0
sg22
F0.0
ssS'BELDEN TIMOTHY N'
p185
(dp186
g3
F213999.0
sg4
F7991.0
sg5
F0.33355969872823804
sg6
F2144013.0
sg7
F5501630.0
sg8
F953136.0
sg9
F5249999.0
sg10
F0.0
sg11
F1110705.0
sg12
F17355.0
sg13
F228.0
sg14
F0.0
sg15
F484.0
sg16
F210698.0
sg17
F108.0
sg18
I01
sg19
F-2334434.0
sg20
F1134637.0
sg21
F157569.0
sg22
F0.0
ssS'DURAN WILLIAM D'
p187
(dp188
g3
F210692.0
sg4
F904.0
sg5
F0.9016126922430064
sg6
F0.0
sg7
F2093263.0
sg8
F1451869.0
sg9
F750000.0
sg10
F0.0
sg11
F1640910.0
sg12
F25785.0
sg13
F106.0
sg14
F0.0
sg15
F12.0
sg16
F1568.0
sg17
F3.0
sg18
I00
sg19
F0.0
sg20
F1105218.0
sg21
F189041.0
sg22
F0.0
ssS'THORN TERENCE H'
p189
(dp190
g3
F222093.0
sg4
F266.0
sg5
F0.0
sg6
F16586.0
sg7
F911453.0
sg8
F4452476.0
sg9
F0.0
sg10
F0.0
sg11
F4817796.0
sg12
F46145.0
sg13
F0.0
sg14
F0.0
sg15
F41.0
sg16
F426629.0
sg17
F0.0
sg18
I00
sg19
F0.0
sg20
F200000.0
sg21
F365320.0
sg22
F0.0
ssS'FASTOW ANDREW S'
p191
(dp192
g3
F440698.0
sg4
F1875.0
sg5
F0.0
sg6
F0.0
sg7
F2424083.0
sg8
F0.0
sg9
F1300000.0
sg10
F0.0
sg11
F1794412.0
sg12
F55921.0
sg13
F62.0
sg14
F0.0
sg15
F44.5
sg16
F277464.0
sg17
F15.5
sg18
I01
sg19
F-1386055.0
sg20
F1736055.0
sg21
F1794412.0
sg22
F0.0
ssS'FOY JOE'
p193
(dp194
g3
F254570.0
sg4
F57.0
sg5
F0.0
sg6
F181755.0
sg7
F181755.0
sg8
F343434.0
sg9
F0.0
sg10
F0.0
sg11
F343434.0
sg12
F0.0
sg13
F0.0
sg14
F0.0
sg15
F13.0
sg16
F0.0
sg17
F0.0
sg18
I00
sg19
F0.0
sg20
F395480.5
sg21
F0.0
sg22
F0.0
ssS'CALGER CHRISTOPHER F'
p195
(dp196
g3
F240189.0
sg4
F2598.0
sg5
F0.5897059984061159
sg6
F0.0
sg7
F1639297.0
sg8
F0.0
sg9
F1250000.0
sg10
F0.0
sg11
F126027.0
sg12
F35818.0
sg13
F199.0
sg14
F0.0
sg15
F144.0
sg16
F486.0
sg17
F25.0
sg18
I01
sg19
F-262500.0
sg20
F375304.0
sg21
F126027.0
sg22
F0.0
ssS'RICE KENNETH D'
p197
(dp198
g3
F420636.0
sg4
F905.0
sg5
F0.7044004400440044
sg6
F0.0
sg7
F505050.0
sg8
F19794175.0
sg9
F1750000.0
sg10
F0.0
sg11
F22542539.0
sg12
F46950.0
sg13
F42.0
sg14
F0.0
sg15
F18.0
sg16
F174839.0
sg17
F4.0
sg18
I01
sg19
F-3504386.0
sg20
F1617011.0
sg21
F2748364.0
sg22
F0.0
ssS'KAMINSKI WINCENTY J'
p199
(dp200
g3
F275101.0
sg4
F4607.0
sg5
F0.03863447688806421
sg6
F0.0
sg7
F1086821.0
sg8
F850010.0
sg9
F400000.0
sg10
F0.0
sg11
F976037.0
sg12
F83585.0
sg13
F41.0
sg14
F0.0
sg15
F14368.0
sg16
F4669.0
sg17
F171.0
sg18
I00
sg19
F0.0
sg20
F323466.0
sg21
F126027.0
sg22
F0.0
ssS'LOCKHART EUGENE E'
p201
(dp202
g3
F254570.0
sg4
F944.0
sg5
F0.0
sg6
F0.0
sg7
F0.0
sg8
F0.0
sg9
F0.0
sg10
F0.0
sg11
F0.0
sg12
F0.0
sg13
F26.5
sg14
F0.0
sg15
F41.0
sg16
F0.0
sg17
F6.0
sg18
I00
sg19
F0.0
sg20
F395480.5
sg21
F0.0
sg22
F0.0
ssS'COX DAVID'
p203
(dp204
g3
F314288.0
sg4
F102.0
sg5
F0.03773584905660377
sg6
F0.0
sg7
F1101393.0
sg8
F117551.0
sg9
F800000.0
sg10
F0.0
sg11
F495633.0
sg12
F27861.0
sg13
F0.0
sg14
F0.0
sg15
F33.0
sg16
F494.0
sg17
F4.0
sg18
I00
sg19
F-41250.0
sg20
F395480.5
sg21
F378082.0
sg22
F0.0
ssS'OVERDYKE JR JERE C'
p205
(dp206
g3
F94941.0
sg4
F944.0
sg5
F0.0
sg6
F0.0
sg7
F249787.0
sg8
F5266578.0
sg9
F0.0
sg10
F0.0
sg11
F7307594.0
sg12
F18834.0
sg13
F26.5
sg14
F0.0
sg15
F41.0
sg16
F176.0
sg17
F6.0
sg18
I00
sg19
F0.0
sg20
F135836.0
sg21
F2041016.0
sg22
F0.0
ssS'PEREIRA PAULO V. FERRAZ'
p207
(dp208
g3
F254570.0
sg4
F944.0
sg5
F0.0
sg6
F0.0
sg7
F27942.0
sg8
F0.0
sg9
F0.0
sg10
F0.0
sg11
F0.0
sg12
F27942.0
sg13
F26.5
sg14
F0.0
sg15
F41.0
sg16
F0.0
sg17
F6.0
sg18
I00
sg19
F-101250.0
sg20
F395480.5
sg21
F0.0
sg22
F101250.0
ssS'STABLER FRANK'
p209
(dp210
g3
F239502.0
sg4
F944.0
sg5
F0.0
sg6
F0.0
sg7
F1112087.0
sg8
F0.0
sg9
F500000.0
sg10
F0.0
sg11
F511734.0
sg12
F16514.0
sg13
F26.5
sg14
F0.0
sg15
F41.0
sg16
F356071.0
sg17
F6.0
sg18
I00
sg19
F0.0
sg20
F395480.5
sg21
F511734.0
sg22
F0.0
ssS'SKILLING JEFFREY K'
p211
(dp212
g3
F1111258.0
sg4
F3627.0
sg5
F0.4571830372838225
sg6
F0.0
sg7
F8682716.0
sg8
F19250000.0
sg9
F5600000.0
sg10
F0.0
sg11
F26093672.0
sg12
F29336.0
sg13
F88.0
sg14
F0.0
sg15
F108.0
sg16
F22122.0
sg17
F30.0
sg18
I01
sg19
F0.0
sg20
F1920000.0
sg21
F6843672.0
sg22
F0.0
ssS'BLAKE JR. NORMAN P'
p213
(dp214
g3
F254570.0
sg4
F944.0
sg5
F0.0
sg6
F0.0
sg7
F1279.0
sg8
F0.0
sg9
F0.0
sg10
F0.0
sg11
F0.0
sg12
F1279.0
sg13
F26.5
sg14
F0.0
sg15
F41.0
sg16
F0.0
sg17
F6.0
sg18
I00
sg19
F-113784.0
sg20
F395480.5
sg21
F0.0
sg22
F113784.0
ssS'SHERRICK JEFFREY B'
p215
(dp216
g3
F254570.0
sg4
F613.0
sg5
F0.637901148969889
sg6
F0.0
sg7
F0.0
sg8
F1426469.0
sg9
F0.0
sg10
F0.0
sg11
F1832468.0
sg12
F0.0
sg13
F39.0
sg14
F0.0
sg15
F25.0
sg16
F0.0
sg17
F18.0
sg18
I00
sg19
F0.0
sg20
F395480.5
sg21
F405999.0
sg22
F0.0
ssS'PRENTICE JAMES'
p217
(dp218
g3
F254570.0
sg4
F944.0
sg5
F0.0
sg6
F564348.0
sg7
F564348.0
sg8
F886231.0
sg9
F0.0
sg10
F0.0
sg11
F1095040.0
sg12
F0.0
sg13
F26.5
sg14
F0.0
sg15
F41.0
sg16
F0.0
sg17
F6.0
sg18
I00
sg19
F0.0
sg20
F395480.5
sg21
F208809.0
sg22
F0.0
ssS'GRAY RODNEY'
p219
(dp220
g3
F6615.0
sg4
F944.0
sg5
F0.0
sg6
F93585.0
sg7
F1146658.0
sg8
F0.0
sg9
F0.0
sg10
F0.0
sg11
F0.0
sg12
F0.0
sg13
F26.5
sg14
F0.0
sg15
F41.0
sg16
F680833.0
sg17
F6.0
sg18
I00
sg19
F0.0
sg20
F365625.0
sg21
F0.0
sg22
F0.0
ssS'PICKERING MARK R'
p221
(dp222
g3
F655037.0
sg4
F898.0
sg5
F0.0945945945945946
sg6
F0.0
sg7
F1386690.0
sg8
F28798.0
sg9
F300000.0
sg10
F0.0
sg11
F28798.0
sg12
F31653.0
sg13
F7.0
sg14
F400000.0
sg15
F67.0
sg16
F0.0
sg17
F0.0
sg18
I00
sg19
F0.0
sg20
F395480.5
sg21
F0.0
sg22
F0.0
ssS'THE TRAVEL AGENCY IN THE PARK'
p223
(dp224
g3
F254570.0
sg4
F944.0
sg5
F0.0
sg6
F0.0
sg7
F362096.0
sg8
F0.0
sg9
F0.0
sg10
F0.0
sg11
F0.0
sg12
F0.0
sg13
F26.5
sg14
F0.0
sg15
F41.0
sg16
F362096.0
sg17
F6.0
sg18
I00
sg19
F0.0
sg20
F395480.5
sg21
F0.0
sg22
F0.0
ssS'NOLES JAMES L'
p225
(dp226
g3
F254570.0
sg4
F944.0
sg5
F0.0
sg6
F774401.0
sg7
F774401.0
sg8
F0.0
sg9
F0.0
sg10
F-94556.0
sg11
F368705.0
sg12
F0.0
sg13
F26.5
sg14
F0.0
sg15
F41.0
sg16
F0.0
sg17
F6.0
sg18
I00
sg19
F0.0
sg20
F395480.5
sg21
F463261.0
sg22
F0.0
ssS'KEAN STEVEN J'
p227
(dp228
g3
F404338.0
sg4
F12754.0
sg5
F0.04974260961801145
sg6
F0.0
sg7
F1747522.0
sg8
F2022048.0
sg9
F1000000.0
sg10
F0.0
sg11
F6153642.0
sg12
F41953.0
sg13
F140.0
sg14
F0.0
sg15
F6759.0
sg16
F1231.0
sg17
F387.0
sg18
I00
sg19
F0.0
sg20
F300000.0
sg21
F4131594.0
sg22
F0.0
ssS'FOWLER PEGGY'
p229
(dp230
g3
F254570.0
sg4
F517.0
sg5
F0.0
sg6
F0.0
sg7
F0.0
sg8
F1324578.0
sg9
F0.0
sg10
F0.0
sg11
F1884748.0
sg12
F0.0
sg13
F0.0
sg14
F0.0
sg15
F36.0
sg16
F0.0
sg17
F0.0
sg18
I00
sg19
F0.0
sg20
F395480.5
sg21
F560170.0
sg22
F0.0
ssS'WASAFF GEORGE'
p231
(dp232
g3
F259996.0
sg4
F400.0
sg5
F0.44027594027594025
sg6
F831299.0
sg7
F1034395.0
sg8
F1668260.0
sg9
F325000.0
sg10
F0.0
sg11
F2056427.0
sg12
F0.0
sg13
F22.0
sg14
F0.0
sg15
F30.0
sg16
F1425.0
sg17
F7.0
sg18
I00
sg19
F-583325.0
sg20
F200000.0
sg21
F388167.0
sg22
F0.0
ssS'WHITE JR THOMAS E'
p233
(dp234
g3
F317543.0
sg4
F944.0
sg5
F0.0
sg6
F0.0
sg7
F1934359.0
sg8
F1297049.0
sg9
F450000.0
sg10
F0.0
sg11
F15144123.0
sg12
F81353.0
sg13
F26.5
sg14
F0.0
sg15
F41.0
sg16
F1085463.0
sg17
F6.0
sg18
I00
sg19
F0.0
sg20
F395480.5
sg21
F13847074.0
sg22
F0.0
ssS'CHRISTODOULOU DIOMEDES'
p235
(dp236
g3
F254570.0
sg4
F944.0
sg5
F0.0
sg6
F0.0
sg7
F0.0
sg8
F5127155.0
sg9
F0.0
sg10
F0.0
sg11
F6077885.0
sg12
F0.0
sg13
F26.5
sg14
F0.0
sg15
F41.0
sg16
F0.0
sg17
F6.0
sg18
I00
sg19
F0.0
sg20
F395480.5
sg21
F950730.0
sg22
F0.0
ssS'ALLEN PHILLIP K'
p237
(dp238
g3
F201955.0
sg4
F2902.0
sg5
F0.042871076338684797
sg6
F2869717.0
sg7
F4484442.0
sg8
F1729541.0
sg9
F4175000.0
sg10
F-126027.0
sg11
F1729541.0
sg12
F13868.0
sg13
F47.0
sg14
F0.0
sg15
F2195.0
sg16
F152.0
sg17
F65.0
sg18
I00
sg19
F-3081055.0
sg20
F304805.0
sg21
F126027.0
sg22
F0.0
ssS'SHARP VICTORIA T'
p239
(dp240
g3
F248146.0
sg4
F3136.0
sg5
F0.15190961171228518
sg6
F187469.0
sg7
F1576511.0
sg8
F281073.0
sg9
F600000.0
sg10
F0.0
sg11
F494136.0
sg12
F116337.0
sg13
F24.0
sg14
F0.0
sg15
F136.0
sg16
F2401.0
sg17
F6.0
sg18
I00
sg19
F0.0
sg20
F422158.0
sg21
F213063.0
sg22
F0.0
ssS'JAEDICKE ROBERT'
p241
(dp242
g3
F254570.0
sg4
F944.0
sg5
F0.0
sg6
F0.0
sg7
F83750.0
sg8
F431750.0
sg9
F0.0
sg10
F-44093.0
sg11
F431750.0
sg12
F0.0
sg13
F26.5
sg14
F0.0
sg15
F41.0
sg16
F0.0
sg17
F6.0
sg18
I00
sg19
F-25000.0
sg20
F395480.5
sg21
F44093.0
sg22
F108750.0
ssS'WINOKUR JR. HERBERT S'
p243
(dp244
g3
F254570.0
sg4
F944.0
sg5
F0.0
sg6
F0.0
sg7
F84992.0
sg8
F0.0
sg9
F0.0
sg10
F0.0
sg11
F0.0
sg12
F1413.0
sg13
F26.5
sg14
F0.0
sg15
F41.0
sg16
F0.0
sg17
F6.0
sg18
I00
sg19
F-25000.0
sg20
F395480.5
sg21
F0.0
sg22
F108579.0
ssS'BROWN MICHAEL'
p245
(dp246
g3
F254570.0
sg4
F1486.0
sg5
F0.24141323569702855
sg6
F0.0
sg7
F49288.0
sg8
F0.0
sg9
F0.0
sg10
F0.0
sg11
F0.0
sg12
F49288.0
sg13
F13.0
sg14
F0.0
sg15
F41.0
sg16
F0.0
sg17
F1.0
sg18
I00
sg19
F0.0
sg20
F395480.5
sg21
F0.0
sg22
F0.0
ssS'BADUM JAMES P'
p247
(dp248
g3
F254570.0
sg4
F944.0
sg5
F0.0
sg6
F178980.0
sg7
F182466.0
sg8
F257817.0
sg9
F0.0
sg10
F0.0
sg11
F257817.0
sg12
F3486.0
sg13
F26.5
sg14
F0.0
sg15
F41.0
sg16
F0.0
sg17
F6.0
sg18
I00
sg19
F0.0
sg20
F395480.5
sg21
F0.0
sg22
F0.0
ssS'HUGHES JAMES A'
p249
(dp250
g3
F254570.0
sg4
F719.0
sg5
F0.5141524541596605
sg6
F0.0
sg7
F0.0
sg8
F754966.0
sg9
F0.0
sg10
F0.0
sg11
F1118394.0
sg12
F0.0
sg13
F35.0
sg14
F0.0
sg15
F34.0
sg16
F0.0
sg17
F5.0
sg18
I00
sg19
F0.0
sg20
F395480.5
sg21
F363428.0
sg22
F0.0
ssS'REYNOLDS LAWRENCE'
p251
(dp252
g3
F76399.0
sg4
F944.0
sg5
F0.0
sg6
F51365.0
sg7
F394475.0
sg8
F4160672.0
sg9
F100000.0
sg10
F-140264.0
sg11
F4221891.0
sg12
F8409.0
sg13
F26.5
sg14
F0.0
sg15
F41.0
sg16
F202052.0
sg17
F6.0
sg18
I00
sg19
F-200000.0
sg20
F156250.0
sg21
F201483.0
sg22
F0.0
ssS'DIMICHELE RICHARD G'
p253
(dp254
g3
F262788.0
sg4
F944.0
sg5
F0.0
sg6
F0.0
sg7
F2368151.0
sg8
F8191755.0
sg9
F1000000.0
sg10
F0.0
sg11
F8317782.0
sg12
F35812.0
sg13
F26.5
sg14
F0.0
sg15
F41.0
sg16
F374689.0
sg17
F6.0
sg18
I00
sg19
F0.0
sg20
F694862.0
sg21
F126027.0
sg22
F0.0
ssS'BHATNAGAR SANJAY'
p255
(dp256
g3
F254570.0
sg4
F523.0
sg5
F0.0019083969465648854
sg6
F0.0
sg7
F15456290.0
sg8
F2604490.0
sg9
F0.0
sg10
F15456290.0
sg11
F0.0
sg12
F0.0
sg13
F0.0
sg14
F0.0
sg15
F29.0
sg16
F137864.0
sg17
F1.0
sg18
I00
sg19
F0.0
sg20
F395480.5
sg21
F-2604490.0
sg22
F137864.0
ssS'CARTER REBECCA C'
p257
(dp258
g3
F261809.0
sg4
F312.0
sg5
F0.6810344827586207
sg6
F0.0
sg7
F477557.0
sg8
F0.0
sg9
F300000.0
sg10
F-307301.0
sg11
F0.0
sg12
F0.0
sg13
F29.0
sg14
F0.0
sg15
F15.0
sg16
F540.0
sg17
F7.0
sg18
I00
sg19
F-159792.0
sg20
F75000.0
sg21
F307301.0
sg22
F0.0
ssS'BUCHANAN HAROLD G'
p259
(dp260
g3
F248017.0
sg4
F1088.0
sg5
F0.0
sg6
F0.0
sg7
F1054637.0
sg8
F825464.0
sg9
F500000.0
sg10
F0.0
sg11
F1014505.0
sg12
F600.0
sg13
F0.0
sg14
F0.0
sg15
F125.0
sg16
F1215.0
sg17
F0.0
sg18
I00
sg19
F0.0
sg20
F304805.0
sg21
F189041.0
sg22
F0.0
ssS'YEAP SOON'
p261
(dp262
g3
F254570.0
sg4
F944.0
sg5
F0.0
sg6
F0.0
sg7
F55097.0
sg8
F192758.0
sg9
F0.0
sg10
F0.0
sg11
F192758.0
sg12
F55097.0
sg13
F26.5
sg14
F0.0
sg15
F41.0
sg16
F0.0
sg17
F6.0
sg18
I00
sg19
F0.0
sg20
F395480.5
sg21
F0.0
sg22
F0.0
ssS'MURRAY JULIA H'
p263
(dp264
g3
F229284.0
sg4
F2192.0
sg5
F0.19734014845683032
sg6
F0.0
sg7
F812194.0
sg8
F400478.0
sg9
F400000.0
sg10
F0.0
sg11
F597461.0
sg12
F57580.0
sg13
F11.0
sg14
F0.0
sg15
F45.0
sg16
F330.0
sg17
F2.0
sg18
I00
sg19
F0.0
sg20
F125000.0
sg21
F196983.0
sg22
F0.0
ssS'GARLAND C KEVIN'
p265
(dp266
g3
F231946.0
sg4
F209.0
sg5
F0.2995919648462021
sg6
F0.0
sg7
F1566469.0
sg8
F636246.0
sg9
F850000.0
sg10
F0.0
sg11
F896153.0
sg12
F48405.0
sg13
F10.0
sg14
F0.0
sg15
F44.0
sg16
F60814.0
sg17
F27.0
sg18
I00
sg19
F0.0
sg20
F375304.0
sg21
F259907.0
sg22
F0.0
ssS'DODSON KEITH'
p267
(dp268
g3
F221003.0
sg4
F176.0
sg5
F0.4334264432029795
sg6
F0.0
sg7
F319941.0
sg8
F0.0
sg9
F70000.0
sg10
F0.0
sg11
F0.0
sg12
F28164.0
sg13
F10.0
sg14
F0.0
sg15
F14.0
sg16
F774.0
sg17
F3.0
sg18
I00
sg19
F0.0
sg20
F395480.5
sg21
F0.0
sg22
F0.0
ssS'YEAGER F SCOTT'
p269
(dp270
g3
F158403.0
sg4
F1875.0
sg5
F0.0
sg6
F0.0
sg7
F360300.0
sg8
F8308552.0
sg9
F0.0
sg10
F0.0
sg11
F11884758.0
sg12
F53947.0
sg13
F62.0
sg14
F0.0
sg15
F44.5
sg16
F147950.0
sg17
F15.5
sg18
I01
sg19
F0.0
sg20
F1134637.0
sg21
F3576206.0
sg22
F0.0
ssS'HIRKO JOSEPH'
p271
(dp272
g3
F278601.0
sg4
F1875.0
sg5
F0.0
sg6
F10259.0
sg7
F91093.0
sg8
F30766064.0
sg9
F0.0
sg10
F0.0
sg11
F30766064.0
sg12
F77978.0
sg13
F62.0
sg14
F0.0
sg15
F44.5
sg16
F2856.0
sg17
F15.5
sg18
I01
sg19
F0.0
sg20
F1134637.0
sg21
F0.0
sg22
F0.0
ssS'DIETRICH JANET R'
p273
(dp274
g3
F250100.0
sg4
F2572.0
sg5
F0.834218114260735
sg6
F0.0
sg7
F1410464.0
sg8
F1550019.0
sg9
F600000.0
sg10
F0.0
sg11
F1865087.0
sg12
F3475.0
sg13
F305.0
sg14
F0.0
sg15
F63.0
sg16
F473.0
sg17
F14.0
sg18
I00
sg19
F0.0
sg20
F556416.0
sg21
F315068.0
sg22
F0.0
ssS'DERRICK JR. JAMES V'
p275
(dp276
g3
F492375.0
sg4
F2181.0
sg5
F0.07486272940497475
sg6
F0.0
sg7
F550981.0
sg8
F8831913.0
sg9
F800000.0
sg10
F-1787380.0
sg11
F8831913.0
sg12
F51124.0
sg13
F64.0
sg14
F0.0
sg15
F909.0
sg16
F7482.0
sg17
F20.0
sg18
I00
sg19
F-1284000.0
sg20
F484000.0
sg21
F1787380.0
sg22
F0.0
ssS'FREVERT MARK A'
p277
(dp278
g3
F1060932.0
sg4
F3275.0
sg5
F0.9219808020136678
sg6
F6426990.0
sg7
F17252530.0
sg8
F10433518.0
sg9
F2000000.0
sg10
F0.0
sg11
F14622185.0
sg12
F86987.0
sg13
F242.0
sg14
F2000000.0
sg15
F21.0
sg16
F7427621.0
sg17
F6.0
sg18
I00
sg19
F-3367011.0
sg20
F1617011.0
sg21
F4188667.0
sg22
F0.0
ssS'PAI LOU L'
p279
(dp280
g3
F261879.0
sg4
F944.0
sg5
F0.0
sg6
F0.0
sg7
F3123383.0
sg8
F15364167.0
sg9
F1000000.0
sg10
F0.0
sg11
F23817930.0
sg12
F32047.0
sg13
F26.5
sg14
F0.0
sg15
F41.0
sg16
F1829457.0
sg17
F6.0
sg18
I00
sg19
F0.0
sg20
F395480.5
sg21
F8453763.0
sg22
F0.0
ssS'BAY FRANKLIN R'
p281
(dp282
g3
F239671.0
sg4
F944.0
sg5
F0.0
sg6
F260455.0
sg7
F827696.0
sg8
F0.0
sg9
F400000.0
sg10
F-82782.0
sg11
F63014.0
sg12
F129142.0
sg13
F26.5
sg14
F0.0
sg15
F41.0
sg16
F69.0
sg17
F6.0
sg18
I00
sg19
F-201641.0
sg20
F395480.5
sg21
F145796.0
sg22
F0.0
ssS'HAYSLETT RODERICK J'
p283
(dp284
g3
F254570.0
sg4
F2649.0
sg5
F0.04607647255371225
sg6
F0.0
sg7
F0.0
sg8
F0.0
sg9
F0.0
sg10
F0.0
sg11
F346663.0
sg12
F0.0
sg13
F35.0
sg14
F0.0
sg15
F1061.0
sg16
F0.0
sg17
F38.0
sg18
I00
sg19
F0.0
sg20
F395480.5
sg21
F346663.0
sg22
F0.0
ssS'FUGH JOHN L'
p285
(dp286
g3
F254570.0
sg4
F944.0
sg5
F0.0
sg6
F50591.0
sg7
F50591.0
sg8
F176378.0
sg9
F0.0
sg10
F0.0
sg11
F176378.0
sg12
F0.0
sg13
F26.5
sg14
F0.0
sg15
F41.0
sg16
F0.0
sg17
F6.0
sg18
I00
sg19
F0.0
sg20
F395480.5
sg21
F0.0
sg22
F0.0
ssS'FALLON JAMES B'
p287
(dp288
g3
F304588.0
sg4
F1755.0
sg5
F0.37962168040293043
sg6
F0.0
sg7
F3676340.0
sg8
F940257.0
sg9
F2500000.0
sg10
F0.0
sg11
F2332399.0
sg12
F95924.0
sg13
F42.0
sg14
F0.0
sg15
F75.0
sg16
F401481.0
sg17
F37.0
sg18
I00
sg19
F0.0
sg20
F374347.0
sg21
F1392142.0
sg22
F0.0
ssS'KOENIG MARK E'
p289
(dp290
g3
F309946.0
sg4
F2374.0
sg5
F0.4711910584330227
sg6
F0.0
sg7
F1587421.0
sg8
F671737.0
sg9
F700000.0
sg10
F0.0
sg11
F1920055.0
sg12
F127017.0
sg13
F53.0
sg14
F0.0
sg15
F61.0
sg16
F150458.0
sg17
F15.0
sg18
I01
sg19
F0.0
sg20
F300000.0
sg21
F1248318.0
sg22
F0.0
ssS'SAVAGE FRANK'
p291
(dp292
g3
F254570.0
sg4
F944.0
sg5
F0.0
sg6
F0.0
sg7
F3750.0
sg8
F0.0
sg9
F0.0
sg10
F0.0
sg11
F0.0
sg12
F0.0
sg13
F26.5
sg14
F0.0
sg15
F41.0
sg16
F0.0
sg17
F6.0
sg18
I00
sg19
F-121284.0
sg20
F395480.5
sg21
F0.0
sg22
F125034.0
ssS'IZZO LAWRENCE L'
p293
(dp294
g3
F85274.0
sg4
F496.0
sg5
F0.6057247207712235
sg6
F0.0
sg7
F1979596.0
sg8
F2165172.0
sg9
F0.0
sg10
F0.0
sg11
F5819980.0
sg12
F28093.0
sg13
F28.0
sg14
F0.0
sg15
F19.0
sg16
F1553729.0
sg17
F5.0
sg18
I00
sg19
F0.0
sg20
F312500.0
sg21
F3654808.0
sg22
F0.0
ssS'TILNEY ELIZABETH A'
p295
(dp296
g3
F247338.0
sg4
F460.0
sg5
F0.3681821509627352
sg6
F0.0
sg7
F399393.0
sg8
F591250.0
sg9
F300000.0
sg10
F0.0
sg11
F1168042.0
sg12
F0.0
sg13
F10.0
sg14
F0.0
sg15
F19.0
sg16
F152055.0
sg17
F11.0
sg18
I00
sg19
F-575000.0
sg20
F275000.0
sg21
F576792.0
sg22
F0.0
ssS'MARTIN AMANDA K'
p297
(dp298
g3
F349487.0
sg4
F1522.0
sg5
F0.03361344537815126
sg6
F85430.0
sg7
F8407016.0
sg8
F2070306.0
sg9
F0.0
sg10
F0.0
sg11
F2070306.0
sg12
F8211.0
sg13
F8.0
sg14
F0.0
sg15
F230.0
sg16
F2818454.0
sg17
F0.0
sg18
I00
sg19
F0.0
sg20
F5145434.0
sg21
F0.0
sg22
F0.0
ssS'BUY RICHARD B'
p299
(dp300
g3
F330546.0
sg4
F3523.0
sg5
F0.14878740553251835
sg6
F649584.0
sg7
F2355702.0
sg8
F2542813.0
sg9
F900000.0
sg10
F0.0
sg11
F3444470.0
sg12
F0.0
sg13
F156.0
sg14
F0.0
sg15
F1053.0
sg16
F400572.0
sg17
F71.0
sg18
I00
sg19
F-694862.0
sg20
F769862.0
sg21
F901657.0
sg22
F0.0
ssS'GRAMM WENDY L'
p301
(dp302
g3
F254570.0
sg4
F944.0
sg5
F0.0
sg6
F0.0
sg7
F119292.0
sg8
F0.0
sg9
F0.0
sg10
F0.0
sg11
F0.0
sg12
F0.0
sg13
F26.5
sg14
F0.0
sg15
F41.0
sg16
F0.0
sg17
F6.0
sg18
I00
sg19
F0.0
sg20
F395480.5
sg21
F0.0
sg22
F119292.0
ssS'CAUSEY RICHARD A'
p303
(dp304
g3
F415189.0
sg4
F1892.0
sg5
F0.5483585957747584
sg6
F0.0
sg7
F1868758.0
sg8
F0.0
sg9
F1000000.0
sg10
F0.0
sg11
F2502063.0
sg12
F30674.0
sg13
F58.0
sg14
F0.0
sg15
F49.0
sg16
F307895.0
sg17
F12.0
sg18
I01
sg19
F-235000.0
sg20
F350000.0
sg21
F2502063.0
sg22
F0.0
ssS'TAYLOR MITCHELL S'
p305
(dp306
g3
F265214.0
sg4
F533.0
sg5
F0.0
sg6
F227449.0
sg7
F1092663.0
sg8
F3181250.0
sg9
F600000.0
sg10
F0.0
sg11
F3745048.0
sg12
F0.0
sg13
F0.0
sg14
F0.0
sg15
F29.0
sg16
F0.0
sg17
F0.0
sg18
I00
sg19
F0.0
sg20
F395480.5
sg21
F563798.0
sg22
F0.0
ssS'DONAHUE JR JEFFREY M'
p307
(dp308
g3
F278601.0
sg4
F865.0
sg5
F0.9077951728636661
sg6
F0.0
sg7
F875760.0
sg8
F765920.0
sg9
F800000.0
sg10
F0.0
sg11
F1080988.0
sg12
F96268.0
sg13
F188.0
sg14
F0.0
sg15
F22.0
sg16
F891.0
sg17
F11.0
sg18
I00
sg19
F-300000.0
sg20
F395480.5
sg21
F315068.0
sg22
F0.0
ssS'GLISAN JR BEN F'
p309
(dp310
g3
F274975.0
sg4
F873.0
sg5
F0.771531820919494
sg6
F0.0
sg7
F1272284.0
sg8
F384728.0
sg9
F600000.0
sg10
F0.0
sg11
F778546.0
sg12
F125978.0
sg13
F52.0
sg14
F0.0
sg15
F16.0
sg16
F200308.0
sg17
F6.0
sg18
I01
sg19
F0.0
sg20
F71023.0
sg21
F393818.0
sg22
F0.0
ss.