(lp0
S'poi'
p1
aS'bonus'
p2
aS'deferred_income'
p3
aS'deferral_payments'
p4
aS'loan_advances'
p5
aS'other'
p6
aS'expenses'
p7
aS'director_fees'
p8
aS'total_payments'
p9
aS'exercised_stock_options'
p10
aS'restricted_stock'
p11
aS'restricted_stock_deferred'
p12
aS'total_stock_value'
p13
aS'to_messages'
p14
aS'from_messages'
p15
aS'from_this_person_to_poi'
p16
aS'from_poi_to_this_person'
p17
aS'long_term_incentive'
p18
aS'salary'
p19
aS'poi_to_email'
p20
aS'poi_from_email'
p21
a.