(lp0
S'poi'
p1
aS'long_term_incentive'
p2
aS'from_this_person_to_poi'
p3
aS'other'
p4
aS'poi_email_ratio'
p5
aS'from_poi_to_this_person'
p6
aS'expenses'
p7
aS'total_payments'
p8
aS'from_messages'
p9
a.