(lp0
S'poi'
p1
aS'other'
p2
aS'expenses'
p3
aS'total_payments'
p4
aS'from_messages'
p5
aS'from_this_person_to_poi'
p6
aS'from_poi_to_this_person'
p7
aS'long_term_incentive'
p8
aS'poi_to_email'
p9
aS'bonus'
p10
aS'restricted_stock'
p11
aS'exercised_stock_options'
p12
aS'salary'
p13
a.